; Function Attrs: mustprogress uwtable
define noundef double @_ZN8QuantLib12CallableBond17effectiveDurationEdRKNS_6HandleINS_18YieldTermStructureEEERKNS_10DayCounterENS_11CompoundingENS_9FrequencyEd(ptr noundef nonnull align 8 dereferenceable(304) %this, double noundef %oas, ptr noundef nonnull align 8 dereferenceable(16) %engineTS, ptr noundef nonnull align 8 dereferenceable(16) %dayCounter, i32 noundef %compounding, i32 noundef %frequency, double noundef %bump) local_unnamed_addr #8 align 2 {
entry:
  %agg.tmp = alloca %"class.QuantLib::Date", align 8
  %agg.tmp2 = alloca %"class.QuantLib::Date", align 8
  %agg.tmp5 = alloca %"class.QuantLib::Date", align 8
  call void @_ZN8QuantLib4DateC1Ev(ptr noundef nonnull align 8 dereferenceable(8) %agg.tmp)
  %0 = load i64, ptr %agg.tmp, align 8
  %call = call noundef double @_ZN8QuantLib12CallableBond13cleanPriceOASEdRKNS_6HandleINS_18YieldTermStructureEEERKNS_10DayCounterENS_11CompoundingENS_9FrequencyENS_4DateE(ptr noundef nonnull align 8 dereferenceable(304) %this, double noundef %oas, ptr noundef nonnull align 8 dereferenceable(16) %engineTS, ptr noundef nonnull align 8 dereferenceable(16) %dayCounter, i32 noundef %compounding, i32 noundef %frequency, i64 %0)
  %add = fadd double %oas, %bump
  call void @_ZN8QuantLib4DateC1Ev(ptr noundef nonnull align 8 dereferenceable(8) %agg.tmp2)
  %1 = load i64, ptr %agg.tmp2, align 8
  %call4 = call noundef double @_ZN8QuantLib12CallableBond13cleanPriceOASEdRKNS_6HandleINS_18YieldTermStructureEEERKNS_10DayCounterENS_11CompoundingENS_9FrequencyENS_4DateE(ptr noundef nonnull align 8 dereferenceable(304) %this, double noundef %add, ptr noundef nonnull align 8 dereferenceable(16) %engineTS, ptr noundef nonnull align 8 dereferenceable(16) %dayCounter, i32 noundef %compounding, i32 noundef %frequency, i64 %1)
  %sub = fsub double %oas, %bump
  call void @_ZN8QuantLib4DateC1Ev(ptr noundef nonnull align 8 dereferenceable(8) %agg.tmp5)
  %2 = load i64, ptr %agg.tmp5, align 8
  %call7 = call noundef double @_ZN8QuantLib12CallableBond13cleanPriceOASEdRKNS_6HandleINS_18YieldTermStructureEEERKNS_10DayCounterENS_11CompoundingENS_9FrequencyENS_4DateE(ptr noundef nonnull align 8 dereferenceable(304) %this, double noundef %sub, ptr noundef nonnull align 8 dereferenceable(16) %engineTS, ptr noundef nonnull align 8 dereferenceable(16) %dayCounter, i32 noundef %compounding, i32 noundef %frequency, i64 %2)
  %cmp = fcmp oeq double %call, 0.000000e+00
  %sub8 = fsub double %call7, %call4
  %mul = fmul double %call, 2.000000e+00
  %mul9 = fmul double %bump, %mul
  %div = fdiv double %sub8, %mul9
  %retval.0 = select i1 %cmp, double 0.000000e+00, double %div
  ret double %retval.0
}